; Function Attrs: mustprogress uwtable
define dso_local void @_ZN3net18ReliableQuicStream19OnWindowUpdateFrameERKNS_21QuicWindowUpdateFrameE(ptr noundef nonnull align 8 dereferenceable(377) %this, ptr nocapture noundef nonnull readonly align 8 dereferenceable(16) %frame) unnamed_addr #2 align 2 {
entry:
  %flow_controller_ = getelementptr inbounds i8, ptr %this, i64 272
  %byte_offset = getelementptr inbounds i8, ptr %frame, i64 8
  %0 = load i64, ptr %byte_offset, align 8
  %call = tail call noundef zeroext i1 @_ZN3net18QuicFlowController22UpdateSendWindowOffsetEm(ptr noundef nonnull align 8 dereferenceable(96) %flow_controller_, i64 noundef %0)
  br i1 %call, label %if.then, label %if.end

if.then:                                          ; preds = %entry
  %vtable = load ptr, ptr %this, align 8
  %vfn = getelementptr inbounds i8, ptr %vtable, i64 24
  %1 = load ptr, ptr %vfn, align 8
  tail call void %1(ptr noundef nonnull align 8 dereferenceable(377) %this)
  br label %if.end

if.end:                                           ; preds = %if.then, %entry
  ret void
}